; Function Attrs: mustprogress nounwind uwtable
define void @_ZN32pxrInternal_v0_24__pxrReserved__10PlugNotice18DidRegisterPluginsD2Ev(ptr noundef nonnull align 8 dereferenceable(32) initializes((0, 8)) %0) unnamed_addr #1 align 2 personality ptr @__gxx_personality_v0 {
  store ptr getelementptr inbounds nuw inrange(-16, 16) (i8, ptr @_ZTVN32pxrInternal_v0_24__pxrReserved__10PlugNotice18DidRegisterPluginsE, i64 16), ptr %0, align 8
  %2 = getelementptr inbounds nuw i8, ptr %0, i64 8
  %3 = load ptr, ptr %2, align 8
  %4 = getelementptr inbounds nuw i8, ptr %0, i64 16
  %5 = load ptr, ptr %4, align 8
  %.not4.i.i.i.i = icmp eq ptr %3, %5
  br i1 %.not4.i.i.i.i, label %_ZSt8_DestroyIPN32pxrInternal_v0_24__pxrReserved__9TfWeakPtrINS0_10PlugPluginEEES3_EvT_S5_RSaIT0_E.exit.i, label %.lr.ph.i.i.i.i

.lr.ph.i.i.i.i:                                   ; preds = %1, %_ZSt8_DestroyIN32pxrInternal_v0_24__pxrReserved__9TfWeakPtrINS0_10PlugPluginEEEEvPT_.exit.i.i.i.i
  %.05.i.i.i.i = phi ptr [ %15, %_ZSt8_DestroyIN32pxrInternal_v0_24__pxrReserved__9TfWeakPtrINS0_10PlugPluginEEEEvPT_.exit.i.i.i.i ], [ %3, %1 ]
  %6 = getelementptr inbounds nuw i8, ptr %.05.i.i.i.i, i64 8
  %7 = load ptr, ptr %6, align 8
  %.not.i.i.i.i.i.i.i.i.i = icmp eq ptr %7, null
  br i1 %.not.i.i.i.i.i.i.i.i.i, label %_ZSt8_DestroyIN32pxrInternal_v0_24__pxrReserved__9TfWeakPtrINS0_10PlugPluginEEEEvPT_.exit.i.i.i.i, label %_ZN32pxrInternal_v0_24__pxrReserved__17Tf_RefPtr_Counter9RemoveRefEPKNS_9TfRefBaseE.exit.i.i.i.i.i.i.i.i

_ZN32pxrInternal_v0_24__pxrReserved__17Tf_RefPtr_Counter9RemoveRefEPKNS_9TfRefBaseE.exit.i.i.i.i.i.i.i.i: ; preds = %.lr.ph.i.i.i.i
  %8 = getelementptr inbounds nuw i8, ptr %7, i64 8
  %9 = atomicrmw sub ptr %8, i32 1 release, align 4
  %10 = icmp eq i32 %9, 1
  br i1 %10, label %11, label %_ZSt8_DestroyIN32pxrInternal_v0_24__pxrReserved__9TfWeakPtrINS0_10PlugPluginEEEEvPT_.exit.i.i.i.i

11:                                               ; preds = %_ZN32pxrInternal_v0_24__pxrReserved__17Tf_RefPtr_Counter9RemoveRefEPKNS_9TfRefBaseE.exit.i.i.i.i.i.i.i.i
  %12 = load ptr, ptr %7, align 8
  %13 = getelementptr inbounds nuw i8, ptr %12, i64 8
  %14 = load ptr, ptr %13, align 8
  tail call void %14(ptr noundef nonnull align 8 dereferenceable(12) %7) #14
  br label %_ZSt8_DestroyIN32pxrInternal_v0_24__pxrReserved__9TfWeakPtrINS0_10PlugPluginEEEEvPT_.exit.i.i.i.i

_ZSt8_DestroyIN32pxrInternal_v0_24__pxrReserved__9TfWeakPtrINS0_10PlugPluginEEEEvPT_.exit.i.i.i.i: ; preds = %11, %_ZN32pxrInternal_v0_24__pxrReserved__17Tf_RefPtr_Counter9RemoveRefEPKNS_9TfRefBaseE.exit.i.i.i.i.i.i.i.i, %.lr.ph.i.i.i.i
  %15 = getelementptr inbounds nuw i8, ptr %.05.i.i.i.i, i64 16
  %.not.i.i.i.i = icmp eq ptr %15, %5
  br i1 %.not.i.i.i.i, label %_ZSt8_DestroyIPN32pxrInternal_v0_24__pxrReserved__9TfWeakPtrINS0_10PlugPluginEEES3_EvT_S5_RSaIT0_E.exitthread-pre-split.i, label %.lr.ph.i.i.i.i, !llvm.loop !6

_ZSt8_DestroyIPN32pxrInternal_v0_24__pxrReserved__9TfWeakPtrINS0_10PlugPluginEEES3_EvT_S5_RSaIT0_E.exitthread-pre-split.i: ; preds = %_ZSt8_DestroyIN32pxrInternal_v0_24__pxrReserved__9TfWeakPtrINS0_10PlugPluginEEEEvPT_.exit.i.i.i.i
  %.pr.i = load ptr, ptr %2, align 8
  br label %_ZSt8_DestroyIPN32pxrInternal_v0_24__pxrReserved__9TfWeakPtrINS0_10PlugPluginEEES3_EvT_S5_RSaIT0_E.exit.i

_ZSt8_DestroyIPN32pxrInternal_v0_24__pxrReserved__9TfWeakPtrINS0_10PlugPluginEEES3_EvT_S5_RSaIT0_E.exit.i: ; preds = %_ZSt8_DestroyIPN32pxrInternal_v0_24__pxrReserved__9TfWeakPtrINS0_10PlugPluginEEES3_EvT_S5_RSaIT0_E.exitthread-pre-split.i, %1
  %16 = phi ptr [ %.pr.i, %_ZSt8_DestroyIPN32pxrInternal_v0_24__pxrReserved__9TfWeakPtrINS0_10PlugPluginEEES3_EvT_S5_RSaIT0_E.exitthread-pre-split.i ], [ %3, %1 ]
  %.not.i.i.i = icmp eq ptr %16, null
  br i1 %.not.i.i.i, label %_ZNSt6vectorIN32pxrInternal_v0_24__pxrReserved__9TfWeakPtrINS0_10PlugPluginEEESaIS3_EED2Ev.exit, label %17

17:                                               ; preds = %_ZSt8_DestroyIPN32pxrInternal_v0_24__pxrReserved__9TfWeakPtrINS0_10PlugPluginEEES3_EvT_S5_RSaIT0_E.exit.i
  %18 = getelementptr inbounds nuw i8, ptr %0, i64 24
  %19 = load ptr, ptr %18, align 8
  %20 = ptrtoint ptr %19 to i64
  %21 = ptrtoint ptr %16 to i64
  %22 = sub i64 %20, %21
  tail call void @_ZdlPvm(ptr noundef nonnull %16, i64 noundef %22) #15
  br label %_ZNSt6vectorIN32pxrInternal_v0_24__pxrReserved__9TfWeakPtrINS0_10PlugPluginEEESaIS3_EED2Ev.exit

_ZNSt6vectorIN32pxrInternal_v0_24__pxrReserved__9TfWeakPtrINS0_10PlugPluginEEESaIS3_EED2Ev.exit: ; preds = %_ZSt8_DestroyIPN32pxrInternal_v0_24__pxrReserved__9TfWeakPtrINS0_10PlugPluginEEES3_EvT_S5_RSaIT0_E.exit.i, %17
  tail call void @_ZN32pxrInternal_v0_24__pxrReserved__8TfNoticeD2Ev(ptr noundef nonnull align 8 dereferenceable(8) %0) #14
  ret void
}